target datalayout = "e-m:e-p270:32:32-p271:32:32-p272:64:64-i64:64-i128:128-f80:128-n8:16:32:64-S128"
target triple = "x86_64-pc-linux-gnu"

@.str.29 = private unnamed_addr constant [15 x i8] c"Configure host\00", align 1
@.str.30 = private unnamed_addr constant [12 x i8] c"config:host\00", align 1
@.str.31 = private unnamed_addr constant [8 x i8] c"dtcxzyw\00", align 1
@.str.32 = private unnamed_addr constant [3 x i8] c"no\00", align 1
@.str.33 = private unnamed_addr constant [4 x i8] c"yes\00", align 1
@.str.34 = private unnamed_addr constant [14 x i8] c"Configured by\00", align 1
@.str.35 = private unnamed_addr constant [12 x i8] c"config:user\00", align 1
@.str.36 = private unnamed_addr constant [14 x i8] c"Configured on\00", align 1
@.str.37 = private unnamed_addr constant [17 x i8] c"config:timestamp\00", align 1
@.str.38 = private unnamed_addr constant [29 x i8] c"Tue Feb 18 03:01:11 UTC 2025\00", align 1
@.str.39 = private unnamed_addr constant [23 x i8] c"Configure command line\00", align 1
@.str.40 = private unnamed_addr constant [11 x i8] c"config:cli\00", align 1
@.str.42 = private unnamed_addr constant [9 x i8] c"Built by\00", align 1
@.str.43 = private unnamed_addr constant [11 x i8] c"build:user\00", align 1
@.str.44 = private unnamed_addr constant [9 x i8] c"Built on\00", align 1
@.str.45 = private unnamed_addr constant [16 x i8] c"build:timestamp\00", align 1
@.str.46 = private unnamed_addr constant [43 x i8] c"2025\E5\B9\B4 02\E6\9C\88 18\E6\97\A5 \E6\98\9F\E6\9C\9F\E4\BA\8C 03:02:29 UTC\00", align 1
@.str.47 = private unnamed_addr constant [11 x i8] c"Built host\00", align 1
@.str.48 = private unnamed_addr constant [11 x i8] c"build:host\00", align 1
@.str.49 = private unnamed_addr constant [11 x i8] c"C compiler\00", align 1
@.str.50 = private unnamed_addr constant [19 x i8] c"compiler:c:command\00", align 1
@.str.51 = private unnamed_addr constant [9 x i8] c"clang-21\00", align 1
@.str.52 = private unnamed_addr constant [20 x i8] c"C compiler absolute\00", align 1
@.str.53 = private unnamed_addr constant [20 x i8] c"compiler:c:absolute\00", align 1
@.str.54 = private unnamed_addr constant [18 x i8] c"/usr/bin/clang-21\00", align 1
@.str.55 = private unnamed_addr constant [23 x i8] c"C compiler family name\00", align 1
@.str.56 = private unnamed_addr constant [22 x i8] c"compiler:c:familyname\00", align 1
@.str.57 = private unnamed_addr constant [6 x i8] c"CLANG\00", align 1
@.str.58 = private unnamed_addr constant [19 x i8] c"C compiler version\00", align 1
@.str.59 = private unnamed_addr constant [19 x i8] c"compiler:c:version\00", align 1
@.str.60 = private unnamed_addr constant [68 x i8] c"\2221.0.0 (++20250217031520+ab2d330feab3-1~exp1~20250217151633.2240)\22\00", align 1
@.str.61 = private unnamed_addr constant [12 x i8] c"C char size\00", align 1
@.str.62 = private unnamed_addr constant [23 x i8] c"compiler:c:sizeof:char\00", align 1
@.str.63 = private unnamed_addr constant [12 x i8] c"C bool size\00", align 1
@.str.64 = private unnamed_addr constant [23 x i8] c"compiler:c:sizeof:bool\00", align 1
@.str.65 = private unnamed_addr constant [13 x i8] c"C short size\00", align 1
@.str.66 = private unnamed_addr constant [24 x i8] c"compiler:c:sizeof:short\00", align 1
@.str.67 = private unnamed_addr constant [11 x i8] c"C int size\00", align 1
@.str.68 = private unnamed_addr constant [22 x i8] c"compiler:c:sizeof:int\00", align 1
@.str.69 = private unnamed_addr constant [12 x i8] c"C long size\00", align 1
@.str.70 = private unnamed_addr constant [23 x i8] c"compiler:c:sizeof:long\00", align 1
@.str.71 = private unnamed_addr constant [13 x i8] c"C float size\00", align 1
@.str.72 = private unnamed_addr constant [24 x i8] c"compiler:c:sizeof:float\00", align 1
@.str.73 = private unnamed_addr constant [14 x i8] c"C double size\00", align 1
@.str.74 = private unnamed_addr constant [25 x i8] c"compiler:c:sizeof:double\00", align 1
@.str.75 = private unnamed_addr constant [15 x i8] c"C pointer size\00", align 1
@.str.76 = private unnamed_addr constant [26 x i8] c"compiler:c:sizeof:pointer\00", align 1
@.str.77 = private unnamed_addr constant [13 x i8] c"C bool align\00", align 1
@.str.78 = private unnamed_addr constant [22 x i8] c"compiler:c:align:bool\00", align 1
@.str.79 = private unnamed_addr constant [8 x i8] c"skipped\00", align 1
@.str.80 = private unnamed_addr constant [12 x i8] c"C int align\00", align 1
@.str.81 = private unnamed_addr constant [21 x i8] c"compiler:c:align:int\00", align 1
@.str.82 = private unnamed_addr constant [15 x i8] c"C double align\00", align 1
@.str.83 = private unnamed_addr constant [24 x i8] c"compiler:c:align:double\00", align 1
@.str.84 = private unnamed_addr constant [15 x i8] c"Thread support\00", align 1
@.str.85 = private unnamed_addr constant [15 x i8] c"option:threads\00", align 1
@.str.86 = private unnamed_addr constant [6 x i8] c"posix\00", align 1
@.str.87 = private unnamed_addr constant [13 x i8] c"Build CFLAGS\00", align 1
@.str.88 = private unnamed_addr constant [20 x i8] c"option:build:cflags\00", align 1
@.str.89 = private unnamed_addr constant [185 x i8] c"-DNDEBUG  -w -DNDEBUG -O3 -fpass-plugin=/home/dtcxzyw/WorkSpace/Projects/compilers/llvm-opt-benchmark/build/preprocess.so -Qn -g0 -finline-functions   -Wno-unused-command-line-argument\00", align 1
@.str.90 = private unnamed_addr constant [14 x i8] c"Build LDFLAGS\00", align 1
@.str.91 = private unnamed_addr constant [21 x i8] c"option:build:ldflags\00", align 1
@.str.92 = private unnamed_addr constant [3 x i8] c"  \00", align 1
@.str.93 = private unnamed_addr constant [11 x i8] c"Build LIBS\00", align 1
@.str.94 = private unnamed_addr constant [18 x i8] c"option:build:libs\00", align 1
@.str.95 = private unnamed_addr constant [159 x i8] c"-lm   -levent_core -levent_pthreads /home/dtcxzyw/WorkSpace/Projects/compilers/llvm-opt-benchmark/bench/openmpi/ompi/3rd-party/openpmix/src/libpmix.la -lhwloc\00", align 1
@.str.96 = private unnamed_addr constant [23 x i8] c"Internal debug support\00", align 1
@.str.97 = private unnamed_addr constant [13 x i8] c"option:debug\00", align 1
@.str.98 = private unnamed_addr constant [11 x i8] c"dl support\00", align 1
@.str.99 = private unnamed_addr constant [14 x i8] c"option:dlopen\00", align 1
@.str.100 = private unnamed_addr constant [22 x i8] c"prun default --prefix\00", align 1
@.str.101 = private unnamed_addr constant [23 x i8] c"prun:prefix_by_default\00", align 1
@.str.102 = private unnamed_addr constant [20 x i8] c"Symbol vis. support\00", align 1
@.str.103 = private unnamed_addr constant [19 x i8] c"options:visibility\00", align 1
@.str.104 = private unnamed_addr constant [15 x i8] c"Manpages built\00", align 1
@.str.105 = private unnamed_addr constant [18 x i8] c"options:man-pages\00", align 1

; Function Attrs: nounwind uwtable
define dso_local void @prte_info_do_config(i1 noundef zeroext %0) #0 {
  %2 = alloca i8, align 1
  %3 = alloca ptr, align 8
  %4 = alloca ptr, align 8
  %5 = alloca ptr, align 8
  %6 = alloca ptr, align 8
  %7 = alloca ptr, align 8
  %8 = zext i1 %0 to i8
  store i8 %8, ptr %2, align 1, !tbaa !4
  call void @llvm.lifetime.start.p0(i64 8, ptr %3) #9
  call void @llvm.lifetime.start.p0(i64 8, ptr %4) #9
  call void @llvm.lifetime.start.p0(i64 8, ptr %5) #9
  call void @llvm.lifetime.start.p0(i64 8, ptr %6) #9
  call void @llvm.lifetime.start.p0(i64 8, ptr %7) #9
  store ptr @.str.32, ptr %3, align 8, !tbaa !23
  store ptr @.str.33, ptr %4, align 8, !tbaa !23
  store ptr @.str.33, ptr %5, align 8, !tbaa !23
  store ptr @.str.33, ptr %6, align 8, !tbaa !23
  store ptr @.str.33, ptr %7, align 8, !tbaa !23
  call void @prte_info_out(ptr noundef @.str.34, ptr noundef @.str.35, ptr noundef @.str.31)
  call void @prte_info_out(ptr noundef @.str.36, ptr noundef @.str.37, ptr noundef @.str.38)
  call void @prte_info_out(ptr noundef @.str.29, ptr noundef @.str.30, ptr noundef @.str.31)
  call void @prte_info_out(ptr noundef @.str.39, ptr noundef @.str.40, ptr noundef @.str.41)
  call void @prte_info_out(ptr noundef @.str.42, ptr noundef @.str.43, ptr noundef @.str.31)
  call void @prte_info_out(ptr noundef @.str.44, ptr noundef @.str.45, ptr noundef @.str.46)
  call void @prte_info_out(ptr noundef @.str.47, ptr noundef @.str.48, ptr noundef @.str.31)
  call void @prte_info_out(ptr noundef @.str.49, ptr noundef @.str.50, ptr noundef @.str.51)
  call void @prte_info_out(ptr noundef @.str.52, ptr noundef @.str.53, ptr noundef @.str.54)
  call void @prte_info_out(ptr noundef @.str.55, ptr noundef @.str.56, ptr noundef @.str.57)
  call void @prte_info_out(ptr noundef @.str.58, ptr noundef @.str.59, ptr noundef @.str.60)
  %9 = load i8, ptr %2, align 1, !tbaa !4, !range !12, !noundef !13
  %10 = trunc i8 %9 to i1
  br i1 %10, label %11, label %12

11:                                               ; preds = %1
  call void @prte_info_out_int(ptr noundef @.str.61, ptr noundef @.str.62, i32 noundef 1)
  call void @prte_info_out_int(ptr noundef @.str.63, ptr noundef @.str.64, i32 noundef 1)
  call void @prte_info_out_int(ptr noundef @.str.65, ptr noundef @.str.66, i32 noundef 2)
  call void @prte_info_out_int(ptr noundef @.str.67, ptr noundef @.str.68, i32 noundef 4)
  call void @prte_info_out_int(ptr noundef @.str.69, ptr noundef @.str.70, i32 noundef 8)
  call void @prte_info_out_int(ptr noundef @.str.71, ptr noundef @.str.72, i32 noundef 4)
  call void @prte_info_out_int(ptr noundef @.str.73, ptr noundef @.str.74, i32 noundef 8)
  call void @prte_info_out_int(ptr noundef @.str.75, ptr noundef @.str.76, i32 noundef 8)
  call void @prte_info_out(ptr noundef @.str.77, ptr noundef @.str.78, ptr noundef @.str.79)
  call void @prte_info_out_int(ptr noundef @.str.80, ptr noundef @.str.81, i32 noundef 4)
  call void @prte_info_out_int(ptr noundef @.str.82, ptr noundef @.str.83, i32 noundef 8)
  br label %12

12:                                               ; preds = %11, %1
  call void @prte_info_out(ptr noundef @.str.84, ptr noundef @.str.85, ptr noundef @.str.86)
  %13 = load i8, ptr %2, align 1, !tbaa !4, !range !12, !noundef !13
  %14 = trunc i8 %13 to i1
  br i1 %14, label %15, label %16

15:                                               ; preds = %12
  call void @prte_info_out(ptr noundef @.str.87, ptr noundef @.str.88, ptr noundef @.str.89)
  call void @prte_info_out(ptr noundef @.str.90, ptr noundef @.str.91, ptr noundef @.str.92)
  call void @prte_info_out(ptr noundef @.str.93, ptr noundef @.str.94, ptr noundef @.str.95)
  br label %16

16:                                               ; preds = %15, %12
  %17 = load ptr, ptr %3, align 8, !tbaa !23
  call void @prte_info_out(ptr noundef @.str.96, ptr noundef @.str.97, ptr noundef %17)
  %18 = load ptr, ptr %4, align 8, !tbaa !23
  call void @prte_info_out(ptr noundef @.str.98, ptr noundef @.str.99, ptr noundef %18)
  %19 = load ptr, ptr %5, align 8, !tbaa !23
  call void @prte_info_out(ptr noundef @.str.100, ptr noundef @.str.101, ptr noundef %19)
  %20 = load ptr, ptr %6, align 8, !tbaa !23
  call void @prte_info_out(ptr noundef @.str.102, ptr noundef @.str.103, ptr noundef %20)
  %21 = load ptr, ptr %7, align 8, !tbaa !23
  call void @prte_info_out(ptr noundef @.str.104, ptr noundef @.str.105, ptr noundef %21)
  call void @llvm.lifetime.end.p0(i64 8, ptr %7) #9
  call void @llvm.lifetime.end.p0(i64 8, ptr %6) #9
  call void @llvm.lifetime.end.p0(i64 8, ptr %5) #9
  call void @llvm.lifetime.end.p0(i64 8, ptr %4) #9
  call void @llvm.lifetime.end.p0(i64 8, ptr %3) #9
  ret void
}