; Function Attrs: nounwind uwtable
define dso_local void @prte_info_do_config(i1 noundef zeroext %0) local_unnamed_addr #0 {
  tail call void @prte_info_out(ptr noundef nonnull @.str.34, ptr noundef nonnull @.str.35, ptr noundef nonnull @.str.31) #8
  tail call void @prte_info_out(ptr noundef nonnull @.str.36, ptr noundef nonnull @.str.37, ptr noundef nonnull @.str.38) #8
  tail call void @prte_info_out(ptr noundef nonnull @.str.29, ptr noundef nonnull @.str.30, ptr noundef nonnull @.str.31) #8
  tail call void @prte_info_out(ptr noundef nonnull @.str.39, ptr noundef nonnull @.str.40, ptr noundef nonnull @.str.41) #8
  tail call void @prte_info_out(ptr noundef nonnull @.str.42, ptr noundef nonnull @.str.43, ptr noundef nonnull @.str.31) #8
  tail call void @prte_info_out(ptr noundef nonnull @.str.44, ptr noundef nonnull @.str.45, ptr noundef nonnull @.str.46) #8
  tail call void @prte_info_out(ptr noundef nonnull @.str.47, ptr noundef nonnull @.str.48, ptr noundef nonnull @.str.31) #8
  tail call void @prte_info_out(ptr noundef nonnull @.str.49, ptr noundef nonnull @.str.50, ptr noundef nonnull @.str.51) #8
  tail call void @prte_info_out(ptr noundef nonnull @.str.52, ptr noundef nonnull @.str.53, ptr noundef nonnull @.str.54) #8
  tail call void @prte_info_out(ptr noundef nonnull @.str.55, ptr noundef nonnull @.str.56, ptr noundef nonnull @.str.57) #8
  tail call void @prte_info_out(ptr noundef nonnull @.str.58, ptr noundef nonnull @.str.59, ptr noundef nonnull @.str.60) #8
  br i1 %0, label %2, label %.critedge

2:                                                ; preds = %1
  tail call void @prte_info_out_int(ptr noundef nonnull @.str.61, ptr noundef nonnull @.str.62, i32 noundef 1) #8
  tail call void @prte_info_out_int(ptr noundef nonnull @.str.63, ptr noundef nonnull @.str.64, i32 noundef 1) #8
  tail call void @prte_info_out_int(ptr noundef nonnull @.str.65, ptr noundef nonnull @.str.66, i32 noundef 2) #8
  tail call void @prte_info_out_int(ptr noundef nonnull @.str.67, ptr noundef nonnull @.str.68, i32 noundef 4) #8
  tail call void @prte_info_out_int(ptr noundef nonnull @.str.69, ptr noundef nonnull @.str.70, i32 noundef 8) #8
  tail call void @prte_info_out_int(ptr noundef nonnull @.str.71, ptr noundef nonnull @.str.72, i32 noundef 4) #8
  tail call void @prte_info_out_int(ptr noundef nonnull @.str.73, ptr noundef nonnull @.str.74, i32 noundef 8) #8
  tail call void @prte_info_out_int(ptr noundef nonnull @.str.75, ptr noundef nonnull @.str.76, i32 noundef 8) #8
  tail call void @prte_info_out(ptr noundef nonnull @.str.77, ptr noundef nonnull @.str.78, ptr noundef nonnull @.str.79) #8
  tail call void @prte_info_out_int(ptr noundef nonnull @.str.80, ptr noundef nonnull @.str.81, i32 noundef 4) #8
  tail call void @prte_info_out_int(ptr noundef nonnull @.str.82, ptr noundef nonnull @.str.83, i32 noundef 8) #8
  tail call void @prte_info_out(ptr noundef nonnull @.str.84, ptr noundef nonnull @.str.85, ptr noundef nonnull @.str.86) #8
  tail call void @prte_info_out(ptr noundef nonnull @.str.87, ptr noundef nonnull @.str.88, ptr noundef nonnull @.str.89) #8
  tail call void @prte_info_out(ptr noundef nonnull @.str.90, ptr noundef nonnull @.str.91, ptr noundef nonnull @.str.92) #8
  tail call void @prte_info_out(ptr noundef nonnull @.str.93, ptr noundef nonnull @.str.94, ptr noundef nonnull @.str.95) #8
  br label %3

.critedge:                                        ; preds = %1
  tail call void @prte_info_out(ptr noundef nonnull @.str.84, ptr noundef nonnull @.str.85, ptr noundef nonnull @.str.86) #8
  br label %3

3:                                                ; preds = %.critedge, %2
  tail call void @prte_info_out(ptr noundef nonnull @.str.96, ptr noundef nonnull @.str.97, ptr noundef nonnull @.str.32) #8
  tail call void @prte_info_out(ptr noundef nonnull @.str.98, ptr noundef nonnull @.str.99, ptr noundef nonnull @.str.33) #8
  tail call void @prte_info_out(ptr noundef nonnull @.str.100, ptr noundef nonnull @.str.101, ptr noundef nonnull @.str.33) #8
  tail call void @prte_info_out(ptr noundef nonnull @.str.102, ptr noundef nonnull @.str.103, ptr noundef nonnull @.str.33) #8
  tail call void @prte_info_out(ptr noundef nonnull @.str.104, ptr noundef nonnull @.str.105, ptr noundef nonnull @.str.33) #8
  ret void
}